target datalayout = "e-m:e-p270:32:32-p271:32:32-p272:64:64-i64:64-i128:128-f80:128-n8:16:32:64-S128"
target triple = "x86_64-pc-linux-gnu"

%struct._asn1_ctx_t = type { i32, i32, i8, ptr, ptr, ptr, ptr, ptr, %struct.anon.0, %struct.anon.3, %struct.anon.4, ptr }
%struct.anon.0 = type { i32, i8, i8, i8, ptr, ptr, i32, i32, ptr, ptr, ptr, %union.anon }
%union.anon = type { %struct.anon.1 }
%struct.anon.1 = type { ptr }
%struct.anon.3 = type { ptr, ptr, ptr }
%struct.anon.4 = type { i32, i8, ptr, i32, i32, ptr, ptr, ptr, %union.anon.5 }
%union.anon.5 = type { %struct.anon.6 }
%struct.anon.6 = type { ptr }

@hf_s1ap_E_UTRAN_Trace_ID_TraceID = internal global i32 0, align 4
@hf_s1ap_E_UTRAN_Trace_ID_TraceRecordingSessionReference = internal global i32 0, align 4
@ett_s1ap_E_UTRAN_Trace_ID = internal global i32 0, align 4

; Function Attrs: null_pointer_is_valid sspstrong uwtable
define internal i32 @dissect_s1ap_E_UTRAN_Trace_ID(ptr noundef %0, i32 noundef %1, ptr noundef %2, ptr noundef %3, i32 noundef %4) #0 {
  %6 = alloca i32, align 4
  %7 = alloca ptr, align 8
  %8 = alloca i32, align 4
  %9 = alloca ptr, align 8
  %10 = alloca ptr, align 8
  %11 = alloca i32, align 4
  %12 = alloca ptr, align 8
  %13 = alloca ptr, align 8
  %14 = alloca i32, align 4
  store ptr %0, ptr %7, align 8
  store i32 %1, ptr %8, align 4
  store ptr %2, ptr %9, align 8
  store ptr %3, ptr %10, align 8
  store i32 %4, ptr %11, align 4
  call void @llvm.lifetime.start.p0(i64 8, ptr %12) #8
  call void @llvm.lifetime.start.p0(i64 8, ptr %13) #8
  %15 = load ptr, ptr %7, align 8
  %16 = load i32, ptr %8, align 4
  %17 = load ptr, ptr %9, align 8
  %18 = load ptr, ptr %10, align 8
  %19 = load i32, ptr %11, align 4
  %20 = call i32 @dissect_per_octet_string(ptr noundef %15, i32 noundef %16, ptr noundef %17, ptr noundef %18, i32 noundef %19, i32 noundef 8, i32 noundef 8, i1 noundef zeroext false, ptr noundef %12)
  store i32 %20, ptr %8, align 4
  %21 = load ptr, ptr %12, align 8
  %22 = icmp ne ptr %21, null
  br i1 %22, label %25, label %23

23:                                               ; preds = %5
  %24 = load i32, ptr %8, align 4
  store i32 %24, ptr %6, align 4
  store i32 1, ptr %14, align 4
  br label %46

25:                                               ; preds = %5
  %26 = load ptr, ptr %9, align 8
  %27 = getelementptr inbounds nuw %struct._asn1_ctx_t, ptr %26, i32 0, i32 4
  %28 = load ptr, ptr %27, align 8
  %29 = load i32, ptr @ett_s1ap_E_UTRAN_Trace_ID, align 4
  %30 = call ptr @proto_item_add_subtree(ptr noundef %28, i32 noundef %29)
  store ptr %30, ptr %13, align 8
  %31 = load ptr, ptr %12, align 8
  %32 = load ptr, ptr %9, align 8
  %33 = getelementptr inbounds nuw %struct._asn1_ctx_t, ptr %32, i32 0, i32 3
  %34 = load ptr, ptr %33, align 8
  %35 = load ptr, ptr %13, align 8
  %36 = call i32 @dissect_e212_mcc_mnc(ptr noundef %31, ptr noundef %34, ptr noundef %35, i32 noundef 0, i32 noundef 0, i1 noundef zeroext false)
  %37 = load ptr, ptr %13, align 8
  %38 = load i32, ptr @hf_s1ap_E_UTRAN_Trace_ID_TraceID, align 4
  %39 = load ptr, ptr %12, align 8
  %40 = call ptr @proto_tree_add_item(ptr noundef %37, i32 noundef %38, ptr noundef %39, i32 noundef 3, i32 noundef 3, i32 noundef 0)
  %41 = load ptr, ptr %13, align 8
  %42 = load i32, ptr @hf_s1ap_E_UTRAN_Trace_ID_TraceRecordingSessionReference, align 4
  %43 = load ptr, ptr %12, align 8
  %44 = call ptr @proto_tree_add_item(ptr noundef %41, i32 noundef %42, ptr noundef %43, i32 noundef 6, i32 noundef 2, i32 noundef 0)
  %45 = load i32, ptr %8, align 4
  store i32 %45, ptr %6, align 4
  store i32 1, ptr %14, align 4
  br label %46

46:                                               ; preds = %25, %23
  call void @llvm.lifetime.end.p0(i64 8, ptr %13) #8
  call void @llvm.lifetime.end.p0(i64 8, ptr %12) #8
  %47 = load i32, ptr %6, align 4
  ret i32 %47
}